target datalayout = "e-m:e-p270:32:32-p271:32:32-p272:64:64-i64:64-i128:128-f80:128-n8:16:32:64-S128"
target triple = "x86_64-pc-linux-gnu"

%struct.Pdr_Obl_t_ = type { i32, i32, i32, ptr, ptr, ptr }
%struct.Pdr_Man_t_ = type { ptr, ptr, ptr, ptr, ptr, ptr, ptr, ptr, %struct.Vec_Ptr_t_, ptr, i32, i32, ptr, ptr, ptr, ptr, ptr, ptr, i32, i32, ptr, ptr, ptr, i32, i32, ptr, ptr, ptr, ptr, ptr, ptr, ptr, ptr, ptr, ptr, ptr, ptr, ptr, ptr, i32, i32, i32, i32, i32, i32, i32, i32, i32, i32, i32, i32, i32, i32, i32, i32, i32, i64, i64, i64, i64, i64, i64, i64, i64, i64, i64, i64, i64 }
%struct.Vec_Ptr_t_ = type { i32, i32, ptr }

; Function Attrs: nounwind uwtable
define ptr @Pdr_OblRef(ptr noundef %0) #0 {
  %2 = alloca ptr, align 8
  store ptr %0, ptr %2, align 8
  %3 = load ptr, ptr %2, align 8
  %4 = getelementptr inbounds %struct.Pdr_Obl_t_, ptr %3, i32 0, i32 2
  %5 = load i32, ptr %4, align 8
  %6 = add nsw i32 %5, 1
  store i32 %6, ptr %4, align 8
  %7 = load ptr, ptr %2, align 8
  ret ptr %7
}

; Function Attrs: nounwind uwtable
define internal i32 @Abc_MaxInt(i32 noundef %0, i32 noundef %1) #0 {
  %3 = alloca i32, align 4
  %4 = alloca i32, align 4
  store i32 %0, ptr %3, align 4
  store i32 %1, ptr %4, align 4
  %5 = load i32, ptr %3, align 4
  %6 = load i32, ptr %4, align 4
  %7 = icmp sgt i32 %5, %6
  br i1 %7, label %8, label %10

8:                                                ; preds = %2
  %9 = load i32, ptr %3, align 4
  br label %12

10:                                               ; preds = %2
  %11 = load i32, ptr %4, align 4
  br label %12

12:                                               ; preds = %10, %8
  %13 = phi i32 [ %9, %8 ], [ %11, %10 ]
  ret i32 %13
}

; Function Attrs: nounwind uwtable
define void @Pdr_QueuePush(ptr noundef %0, ptr noundef %1) #0 {
  %3 = alloca ptr, align 8
  %4 = alloca ptr, align 8
  %5 = alloca ptr, align 8
  %6 = alloca ptr, align 8
  store ptr %0, ptr %3, align 8
  store ptr %1, ptr %4, align 8
  %7 = load ptr, ptr %3, align 8
  %8 = getelementptr inbounds %struct.Pdr_Man_t_, ptr %7, i32 0, i32 40
  %9 = load i32, ptr %8, align 4
  %10 = add nsw i32 %9, 1
  store i32 %10, ptr %8, align 4
  %11 = load ptr, ptr %3, align 8
  %12 = getelementptr inbounds %struct.Pdr_Man_t_, ptr %11, i32 0, i32 51
  %13 = load i32, ptr %12, align 8
  %14 = add nsw i32 %13, 1
  store i32 %14, ptr %12, align 8
  %15 = load ptr, ptr %3, align 8
  %16 = getelementptr inbounds %struct.Pdr_Man_t_, ptr %15, i32 0, i32 52
  %17 = load i32, ptr %16, align 4
  %18 = load ptr, ptr %3, align 8
  %19 = getelementptr inbounds %struct.Pdr_Man_t_, ptr %18, i32 0, i32 51
  %20 = load i32, ptr %19, align 8
  %21 = call i32 @Abc_MaxInt(i32 noundef %17, i32 noundef %20)
  %22 = load ptr, ptr %3, align 8
  %23 = getelementptr inbounds %struct.Pdr_Man_t_, ptr %22, i32 0, i32 52
  store i32 %21, ptr %23, align 4
  %24 = load ptr, ptr %4, align 8
  %25 = call ptr @Pdr_OblRef(ptr noundef %24)
  %26 = load ptr, ptr %3, align 8
  %27 = getelementptr inbounds %struct.Pdr_Man_t_, ptr %26, i32 0, i32 15
  %28 = load ptr, ptr %27, align 8
  %29 = icmp eq ptr %28, null
  br i1 %29, label %30, label %34

30:                                               ; preds = %2
  %31 = load ptr, ptr %4, align 8
  %32 = load ptr, ptr %3, align 8
  %33 = getelementptr inbounds %struct.Pdr_Man_t_, ptr %32, i32 0, i32 15
  store ptr %31, ptr %33, align 8
  br label %81

34:                                               ; preds = %2
  %35 = load ptr, ptr %3, align 8
  %36 = getelementptr inbounds %struct.Pdr_Man_t_, ptr %35, i32 0, i32 15
  store ptr %36, ptr %6, align 8
  %37 = load ptr, ptr %3, align 8
  %38 = getelementptr inbounds %struct.Pdr_Man_t_, ptr %37, i32 0, i32 15
  %39 = load ptr, ptr %38, align 8
  store ptr %39, ptr %5, align 8
  br label %40

40:                                               ; preds = %69, %34
  %41 = load ptr, ptr %5, align 8
  %42 = icmp ne ptr %41, null
  br i1 %42, label %43, label %75

43:                                               ; preds = %40
  %44 = load ptr, ptr %5, align 8
  %45 = getelementptr inbounds %struct.Pdr_Obl_t_, ptr %44, i32 0, i32 0
  %46 = load i32, ptr %45, align 8
  %47 = load ptr, ptr %4, align 8
  %48 = getelementptr inbounds %struct.Pdr_Obl_t_, ptr %47, i32 0, i32 0
  %49 = load i32, ptr %48, align 8
  %50 = icmp sgt i32 %46, %49
  br i1 %50, label %67, label %51

51:                                               ; preds = %43
  %52 = load ptr, ptr %5, align 8
  %53 = getelementptr inbounds %struct.Pdr_Obl_t_, ptr %52, i32 0, i32 0
  %54 = load i32, ptr %53, align 8
  %55 = load ptr, ptr %4, align 8
  %56 = getelementptr inbounds %struct.Pdr_Obl_t_, ptr %55, i32 0, i32 0
  %57 = load i32, ptr %56, align 8
  %58 = icmp eq i32 %54, %57
  br i1 %58, label %59, label %68

59:                                               ; preds = %51
  %60 = load ptr, ptr %5, align 8
  %61 = getelementptr inbounds %struct.Pdr_Obl_t_, ptr %60, i32 0, i32 1
  %62 = load i32, ptr %61, align 4
  %63 = load ptr, ptr %4, align 8
  %64 = getelementptr inbounds %struct.Pdr_Obl_t_, ptr %63, i32 0, i32 1
  %65 = load i32, ptr %64, align 4
  %66 = icmp sgt i32 %62, %65
  br i1 %66, label %67, label %68

67:                                               ; preds = %59, %43
  br label %75

68:                                               ; preds = %59, %51
  br label %69

69:                                               ; preds = %68
  %70 = load ptr, ptr %5, align 8
  %71 = getelementptr inbounds %struct.Pdr_Obl_t_, ptr %70, i32 0, i32 5
  store ptr %71, ptr %6, align 8
  %72 = load ptr, ptr %5, align 8
  %73 = getelementptr inbounds %struct.Pdr_Obl_t_, ptr %72, i32 0, i32 5
  %74 = load ptr, ptr %73, align 8
  store ptr %74, ptr %5, align 8
  br label %40, !llvm.loop !27

75:                                               ; preds = %67, %40
  %76 = load ptr, ptr %4, align 8
  %77 = load ptr, ptr %6, align 8
  store ptr %76, ptr %77, align 8
  %78 = load ptr, ptr %5, align 8
  %79 = load ptr, ptr %4, align 8
  %80 = getelementptr inbounds %struct.Pdr_Obl_t_, ptr %79, i32 0, i32 5
  store ptr %78, ptr %80, align 8
  br label %81

81:                                               ; preds = %75, %30
  ret void
}