; Function Attrs: nofree norecurse nosync nounwind memory(readwrite, inaccessiblemem: none) uwtable
define void @Pdr_QueuePush(ptr noundef captures(none) %0, ptr noundef %1) local_unnamed_addr #15 {
  %3 = getelementptr inbounds nuw i8, ptr %0, i64 300
  %4 = load i32, ptr %3, align 4
  %5 = add nsw i32 %4, 1
  store i32 %5, ptr %3, align 4
  %6 = getelementptr inbounds nuw i8, ptr %0, i64 344
  %7 = load i32, ptr %6, align 8
  %8 = add nsw i32 %7, 1
  store i32 %8, ptr %6, align 8
  %9 = getelementptr inbounds nuw i8, ptr %0, i64 348
  %10 = load i32, ptr %9, align 4
  %11 = tail call range(i32 -2147483647, -2147483648) i32 @llvm.smax.i32(i32 %10, i32 range(i32 -2147483647, -2147483648) %8)
  store i32 %11, ptr %9, align 4
  %12 = getelementptr inbounds nuw i8, ptr %1, i64 8
  %13 = load i32, ptr %12, align 8
  %14 = add nsw i32 %13, 1
  store i32 %14, ptr %12, align 8
  %15 = getelementptr inbounds nuw i8, ptr %0, i64 120
  %16 = load ptr, ptr %15, align 8
  %17 = icmp eq ptr %16, null
  br i1 %17, label %22, label %.preheader

.preheader:                                       ; preds = %2
  %18 = load i32, ptr %1, align 8
  %19 = getelementptr inbounds nuw i8, ptr %1, i64 4
  %20 = load i32, ptr %16, align 8
  %21 = icmp sgt i32 %20, %18
  br i1 %21, label %._crit_edge, label %.lr.ph

22:                                               ; preds = %2
  store ptr %1, ptr %15, align 8
  br label %37

23:                                               ; preds = %33
  %24 = load i32, ptr %35, align 8
  %25 = icmp sgt i32 %24, %18
  br i1 %25, label %._crit_edge, label %.lr.ph, !llvm.loop !23

.lr.ph:                                           ; preds = %.preheader, %23
  %26 = phi i32 [ %24, %23 ], [ %20, %.preheader ]
  %.0242831 = phi ptr [ %35, %23 ], [ %16, %.preheader ]
  %.02930 = phi ptr [ %34, %23 ], [ %15, %.preheader ]
  %27 = icmp eq i32 %26, %18
  br i1 %27, label %28, label %33

28:                                               ; preds = %.lr.ph
  %29 = getelementptr inbounds nuw i8, ptr %.0242831, i64 4
  %30 = load i32, ptr %29, align 4
  %31 = load i32, ptr %19, align 4
  %32 = icmp sgt i32 %30, %31
  br i1 %32, label %._crit_edge, label %33

33:                                               ; preds = %.lr.ph, %28
  %34 = getelementptr inbounds nuw i8, ptr %.0242831, i64 32
  %35 = load ptr, ptr %34, align 8
  %.not = icmp eq ptr %35, null
  br i1 %.not, label %._crit_edge, label %23, !llvm.loop !23

._crit_edge:                                      ; preds = %33, %28, %23, %.preheader
  %.024.lcssa = phi ptr [ %16, %.preheader ], [ null, %33 ], [ %.0242831, %28 ], [ %35, %23 ]
  %.0.lcssa = phi ptr [ %15, %.preheader ], [ %34, %33 ], [ %.02930, %28 ], [ %34, %23 ]
  store ptr %1, ptr %.0.lcssa, align 8
  %36 = getelementptr inbounds nuw i8, ptr %1, i64 32
  store ptr %.024.lcssa, ptr %36, align 8
  br label %37

37:                                               ; preds = %._crit_edge, %22
  ret void
}